; Function Attrs: null_pointer_is_valid sspstrong uwtable
define internal fastcc range(i32 23, 279) i32 @dissect_rdm_pd_lock_description(ptr noundef %0, ptr noundef %1, i8 noundef zeroext %2, i8 noundef zeroext %3) unnamed_addr #1 {
  switch i8 %2, label %16 [
    i8 32, label %5
    i8 33, label %8
  ]

5:                                                ; preds = %4
  %6 = load i32, ptr @hf_rdm_pd_lock_state_description_lock_state, align 4
  %7 = tail call ptr @proto_tree_add_item(ptr noundef %1, i32 noundef %6, ptr noundef %0, i32 noundef 23, i32 noundef 1, i32 noundef 0)
  br label %16

8:                                                ; preds = %4
  %9 = load i32, ptr @hf_rdm_pd_lock_state_description_lock_state, align 4
  %10 = tail call ptr @proto_tree_add_item(ptr noundef %1, i32 noundef %9, ptr noundef %0, i32 noundef 23, i32 noundef 1, i32 noundef 0)
  %11 = load i32, ptr @hf_rdm_pd_lock_state_description_text, align 4
  %12 = zext i8 %3 to i32
  %13 = add nsw i32 %12, -1
  %14 = tail call ptr @proto_tree_add_item(ptr noundef %1, i32 noundef %11, ptr noundef %0, i32 noundef 24, i32 noundef range(i32 -20, 256) %13, i32 noundef 0)
  %15 = add nuw nsw i32 %12, 23
  br label %16

16:                                               ; preds = %8, %5, %4
  %.0 = phi i32 [ 23, %4 ], [ %15, %8 ], [ 24, %5 ]
  ret i32 %.0
}